target datalayout = "e-m:e-p270:32:32-p271:32:32-p272:64:64-i64:64-i128:128-f80:128-n8:16:32:64-S128"
target triple = "x86_64-pc-linux-gnu"

@hf_ndmp_scsi_device = internal global i32 0, align 4
@hf_ndmp_scsi_controller = internal global i32 0, align 4
@hf_ndmp_scsi_id = internal global i32 0, align 4
@hf_ndmp_scsi_lun = internal global i32 0, align 4

; Function Attrs: null_pointer_is_valid sspstrong uwtable
define internal i32 @dissect_scsi_set_state_request(ptr noundef %0, i32 noundef %1, ptr noundef %2, ptr noundef %3, i32 noundef %4) #0 {
  %6 = alloca ptr, align 8
  %7 = alloca i32, align 4
  %8 = alloca ptr, align 8
  %9 = alloca ptr, align 8
  %10 = alloca i32, align 4
  store ptr %0, ptr %6, align 8
  store i32 %1, ptr %7, align 4
  store ptr %2, ptr %8, align 8
  store ptr %3, ptr %9, align 8
  store i32 %4, ptr %10, align 4
  %11 = load ptr, ptr %6, align 8
  %12 = load ptr, ptr %9, align 8
  %13 = load i32, ptr @hf_ndmp_scsi_device, align 4
  %14 = load i32, ptr %7, align 4
  %15 = call i32 @dissect_rpc_string(ptr noundef %11, ptr noundef %12, i32 noundef %13, i32 noundef %14, ptr noundef null)
  store i32 %15, ptr %7, align 4
  %16 = load ptr, ptr %9, align 8
  %17 = load i32, ptr @hf_ndmp_scsi_controller, align 4
  %18 = load ptr, ptr %6, align 8
  %19 = load i32, ptr %7, align 4
  %20 = call ptr @proto_tree_add_item(ptr noundef %16, i32 noundef %17, ptr noundef %18, i32 noundef %19, i32 noundef 4, i32 noundef 0)
  %21 = load i32, ptr %7, align 4
  %22 = add i32 %21, 4
  store i32 %22, ptr %7, align 4
  %23 = load ptr, ptr %9, align 8
  %24 = load i32, ptr @hf_ndmp_scsi_id, align 4
  %25 = load ptr, ptr %6, align 8
  %26 = load i32, ptr %7, align 4
  %27 = call ptr @proto_tree_add_item(ptr noundef %23, i32 noundef %24, ptr noundef %25, i32 noundef %26, i32 noundef 4, i32 noundef 0)
  %28 = load i32, ptr %7, align 4
  %29 = add i32 %28, 4
  store i32 %29, ptr %7, align 4
  %30 = load ptr, ptr %9, align 8
  %31 = load i32, ptr @hf_ndmp_scsi_lun, align 4
  %32 = load ptr, ptr %6, align 8
  %33 = load i32, ptr %7, align 4
  %34 = call ptr @proto_tree_add_item(ptr noundef %30, i32 noundef %31, ptr noundef %32, i32 noundef %33, i32 noundef 4, i32 noundef 0)
  %35 = load i32, ptr %7, align 4
  %36 = add i32 %35, 4
  store i32 %36, ptr %7, align 4
  %37 = load i32, ptr %7, align 4
  ret i32 %37
}