; Function Attrs: null_pointer_is_valid sspstrong uwtable
define internal noundef i32 @dissect_scsi_set_state_request(ptr noundef %0, i32 noundef %1, ptr readnone captures(none) %2, ptr noundef %3, i32 %4) #0 {
  %6 = load i32, ptr @hf_ndmp_scsi_device, align 4
  %7 = tail call i32 @dissect_rpc_string(ptr noundef %0, ptr noundef %3, i32 noundef %6, i32 noundef %1, ptr noundef null)
  %8 = load i32, ptr @hf_ndmp_scsi_controller, align 4
  %9 = tail call ptr @proto_tree_add_item(ptr noundef %3, i32 noundef %8, ptr noundef %0, i32 noundef %7, i32 noundef 4, i32 noundef 0)
  %10 = add i32 %7, 4
  %11 = load i32, ptr @hf_ndmp_scsi_id, align 4
  %12 = tail call ptr @proto_tree_add_item(ptr noundef %3, i32 noundef %11, ptr noundef %0, i32 noundef %10, i32 noundef 4, i32 noundef 0)
  %13 = add i32 %7, 8
  %14 = load i32, ptr @hf_ndmp_scsi_lun, align 4
  %15 = tail call ptr @proto_tree_add_item(ptr noundef %3, i32 noundef %14, ptr noundef %0, i32 noundef %13, i32 noundef 4, i32 noundef 0)
  %16 = add i32 %7, 12
  ret i32 %16
}